target datalayout = "e-m:e-p270:32:32-p271:32:32-p272:64:64-i64:64-i128:128-f80:128-n8:16:32:64-S128"
target triple = "x86_64-pc-linux-gnu"

%struct.MemoizeState = type { %struct.ScanState, i32, i32, ptr, ptr, ptr, ptr, ptr, ptr, ptr, ptr, i64, i64, ptr, %struct.dlist_head, ptr, ptr, i8, i8, %struct.MemoizeInstrumentation, ptr, ptr }
%struct.ScanState = type { %struct.PlanState, ptr, ptr, ptr }
%struct.PlanState = type { i32, ptr, ptr, ptr, ptr, ptr, ptr, ptr, ptr, ptr, ptr, ptr, ptr, ptr, ptr, ptr, ptr, ptr, i8, ptr, ptr, ptr, ptr, ptr, i8, i8, i8, i8, i8, i8, i8, i8 }
%struct.dlist_head = type { %struct.dlist_node }
%struct.dlist_node = type { ptr, ptr }
%struct.MemoizeInstrumentation = type { i64, i64, i64, i64, i64 }
%struct.ParallelContext = type { %struct.dlist_node, i32, i32, i32, i32, ptr, ptr, ptr, %struct.shm_toc_estimator, ptr, ptr, ptr, ptr, i32, ptr }
%struct.shm_toc_estimator = type { i64, i64 }

; Function Attrs: nounwind uwtable
define dso_local void @ExecMemoizeEstimate(ptr noundef %0, ptr noundef %1) #0 {
  %3 = alloca ptr, align 8
  %4 = alloca ptr, align 8
  %5 = alloca i64, align 8
  %6 = alloca i32, align 4
  store ptr %0, ptr %3, align 8
  store ptr %1, ptr %4, align 8
  call void @llvm.lifetime.start.p0(i64 8, ptr %5) #9
  %7 = load ptr, ptr %3, align 8
  %8 = getelementptr inbounds nuw %struct.MemoizeState, ptr %7, i32 0, i32 0
  %9 = getelementptr inbounds nuw %struct.ScanState, ptr %8, i32 0, i32 0
  %10 = getelementptr inbounds nuw %struct.PlanState, ptr %9, i32 0, i32 5
  %11 = load ptr, ptr %10, align 8
  %12 = icmp ne ptr %11, null
  br i1 %12, label %13, label %18

13:                                               ; preds = %2
  %14 = load ptr, ptr %4, align 8
  %15 = getelementptr inbounds nuw %struct.ParallelContext, ptr %14, i32 0, i32 2
  %16 = load i32, ptr %15, align 4
  %17 = icmp eq i32 %16, 0
  br i1 %17, label %18, label %19

18:                                               ; preds = %13, %2
  store i32 1, ptr %6, align 4
  br label %46

19:                                               ; preds = %13
  %20 = load ptr, ptr %4, align 8
  %21 = getelementptr inbounds nuw %struct.ParallelContext, ptr %20, i32 0, i32 2
  %22 = load i32, ptr %21, align 4
  %23 = sext i32 %22 to i64
  %24 = call i64 @mul_size(i64 noundef %23, i64 noundef 40)
  store i64 %24, ptr %5, align 8
  %25 = load i64, ptr %5, align 8
  %26 = call i64 @add_size(i64 noundef %25, i64 noundef 8)
  store i64 %26, ptr %5, align 8
  %27 = load ptr, ptr %4, align 8
  %28 = getelementptr inbounds nuw %struct.ParallelContext, ptr %27, i32 0, i32 8
  %29 = getelementptr inbounds nuw %struct.shm_toc_estimator, ptr %28, i32 0, i32 0
  %30 = load i64, ptr %29, align 8
  %31 = load i64, ptr %5, align 8
  %32 = add i64 %31, 31
  %33 = and i64 %32, -32
  %34 = call i64 @add_size(i64 noundef %30, i64 noundef %33)
  %35 = load ptr, ptr %4, align 8
  %36 = getelementptr inbounds nuw %struct.ParallelContext, ptr %35, i32 0, i32 8
  %37 = getelementptr inbounds nuw %struct.shm_toc_estimator, ptr %36, i32 0, i32 0
  store i64 %34, ptr %37, align 8
  %38 = load ptr, ptr %4, align 8
  %39 = getelementptr inbounds nuw %struct.ParallelContext, ptr %38, i32 0, i32 8
  %40 = getelementptr inbounds nuw %struct.shm_toc_estimator, ptr %39, i32 0, i32 1
  %41 = load i64, ptr %40, align 8
  %42 = call i64 @add_size(i64 noundef %41, i64 noundef 1)
  %43 = load ptr, ptr %4, align 8
  %44 = getelementptr inbounds nuw %struct.ParallelContext, ptr %43, i32 0, i32 8
  %45 = getelementptr inbounds nuw %struct.shm_toc_estimator, ptr %44, i32 0, i32 1
  store i64 %42, ptr %45, align 8
  store i32 0, ptr %6, align 4
  br label %46

46:                                               ; preds = %19, %18
  call void @llvm.lifetime.end.p0(i64 8, ptr %5) #9
  %47 = load i32, ptr %6, align 4
  switch i32 %47, label %49 [
    i32 0, label %48
    i32 1, label %48
  ]

48:                                               ; preds = %46, %46
  ret void

49:                                               ; preds = %46
  unreachable
}